target datalayout = "e-m:e-p270:32:32-p271:32:32-p272:64:64-i64:64-i128:128-f80:128-n8:16:32:64-S128"
target triple = "x86_64-pc-linux-gnu"

%struct.SDF_Renderer_Module_ = type { %struct.FT_RendererRec_, i32, i8, i8, i8 }
%struct.FT_RendererRec_ = type { %struct.FT_ModuleRec_, ptr, i32, %struct.FT_Glyph_Class_, ptr, ptr, ptr }
%struct.FT_ModuleRec_ = type { ptr, ptr, ptr }
%struct.FT_Glyph_Class_ = type { i64, i32, ptr, ptr, ptr, ptr, ptr, ptr }

; Function Attrs: nounwind uwtable
define internal i32 @ft_sdf_init(ptr noundef %0) #0 {
  %2 = alloca ptr, align 8
  %3 = alloca ptr, align 8
  store ptr %0, ptr %2, align 8, !tbaa !3
  call void @llvm.lifetime.start.p0(i64 8, ptr %3) #7
  %4 = load ptr, ptr %2, align 8, !tbaa !3
  store ptr %4, ptr %3, align 8, !tbaa !8
  %5 = load ptr, ptr %3, align 8, !tbaa !8
  %6 = getelementptr inbounds nuw %struct.SDF_Renderer_Module_, ptr %5, i32 0, i32 1
  store i32 8, ptr %6, align 8, !tbaa !10
  %7 = load ptr, ptr %3, align 8, !tbaa !8
  %8 = getelementptr inbounds nuw %struct.SDF_Renderer_Module_, ptr %7, i32 0, i32 2
  store i8 0, ptr %8, align 4, !tbaa !22
  %9 = load ptr, ptr %3, align 8, !tbaa !8
  %10 = getelementptr inbounds nuw %struct.SDF_Renderer_Module_, ptr %9, i32 0, i32 3
  store i8 0, ptr %10, align 1, !tbaa !23
  %11 = load ptr, ptr %3, align 8, !tbaa !8
  %12 = getelementptr inbounds nuw %struct.SDF_Renderer_Module_, ptr %11, i32 0, i32 4
  store i8 0, ptr %12, align 2, !tbaa !24
  call void @llvm.lifetime.end.p0(i64 8, ptr %3) #7
  ret i32 0
}