; Function Attrs: mustprogress nofree norecurse nosync nounwind willreturn memory(argmem: write) uwtable
define internal noundef i32 @ft_sdf_init(ptr noundef writeonly captures(none) initializes((128, 135)) %0) #0 {
  %2 = getelementptr inbounds nuw i8, ptr %0, i64 128
  store i32 8, ptr %2, align 8, !tbaa !3
  %3 = getelementptr inbounds nuw i8, ptr %0, i64 132
  store i8 0, ptr %3, align 4, !tbaa !18
  %4 = getelementptr inbounds nuw i8, ptr %0, i64 133
  store i8 0, ptr %4, align 1, !tbaa !19
  %5 = getelementptr inbounds nuw i8, ptr %0, i64 134
  store i8 0, ptr %5, align 2, !tbaa !20
  ret i32 0
}